; Function Attrs: nounwind uwtable
define hidden void @zif_hash_copy(ptr noundef readonly captures(none) %0, ptr noundef %1) #0 {
  %3 = alloca ptr, align 8
  call void @llvm.lifetime.start.p0(i64 8, ptr nonnull %3) #16
  %4 = getelementptr inbounds nuw i8, ptr %0, i64 44
  %5 = load i32, ptr %4, align 4, !tbaa !4
  %6 = load ptr, ptr @php_hashcontext_ce, align 8, !tbaa !85
  %7 = call i32 (i32, ptr, ...) @zend_parse_parameters(i32 noundef %5, ptr noundef nonnull @.str.13, ptr noundef nonnull %3, ptr noundef %6) #16
  %8 = icmp eq i32 %7, -1
  br i1 %8, label %.sink.split, label %9

9:                                                ; preds = %2
  %10 = load ptr, ptr %3, align 8, !tbaa !88
  %11 = load ptr, ptr %10, align 8, !tbaa !4
  %12 = getelementptr inbounds i8, ptr %11, i64 -24
  %13 = load ptr, ptr %12, align 8, !tbaa !19
  %.not = icmp eq ptr %13, null
  br i1 %.not, label %14, label %15

14:                                               ; preds = %9
  call void (i32, ptr, ...) @zend_argument_type_error(i32 noundef 1, ptr noundef nonnull @.str.6) #16
  br label %.sink.split

15:                                               ; preds = %9
  %16 = getelementptr inbounds nuw i8, ptr %11, i64 24
  %17 = load ptr, ptr %16, align 8, !tbaa !89
  %18 = getelementptr inbounds nuw i8, ptr %17, i64 24
  %19 = load ptr, ptr %18, align 8, !tbaa !90
  %20 = call ptr %19(ptr noundef nonnull %11) #16
  store ptr %20, ptr %1, align 8, !tbaa !4
  %21 = getelementptr inbounds nuw i8, ptr %1, i64 8
  store i32 776, ptr %21, align 8, !tbaa !4
  %22 = getelementptr inbounds i8, ptr %20, i64 -24
  %23 = load ptr, ptr %22, align 8, !tbaa !19
  %24 = icmp eq ptr %23, null
  br i1 %24, label %25, label %28

25:                                               ; preds = %15
  call void @zval_ptr_dtor(ptr noundef nonnull %1) #16
  call void (ptr, ptr, ...) @zend_throw_error(ptr noundef null, ptr noundef nonnull @.str.14) #16
  br label %.sink.split

.sink.split:                                      ; preds = %2, %14, %25
  %26 = load ptr, ptr getelementptr inbounds nuw (i8, ptr @executor_globals, i64 960), align 8, !tbaa !47
  %27 = icmp ne ptr %26, null
  call void @llvm.assume(i1 %27)
  br label %28

28:                                               ; preds = %.sink.split, %15
  call void @llvm.lifetime.end.p0(i64 8, ptr nonnull %3) #16
  ret void
}